; Function Attrs: mustprogress null_pointer_is_valid sspstrong uwtable
define void @_ZN23LBMLBTRUTransportDialog20resetReceiversDetailEv(ptr noundef align 8 captures(none) dereferenceable_or_null(112) %0) local_unnamed_addr #0 align 2 personality ptr @__gxx_personality_v0 {
  %2 = alloca %class.QString, align 8
  %3 = getelementptr inbounds nuw i8, ptr %0, i64 40
  br label %4

4:                                                ; preds = %4, %1
  %5 = load ptr, ptr %3, align 8
  %6 = getelementptr inbounds nuw i8, ptr %5, i64 664
  %7 = load ptr, ptr %6, align 8
  %8 = tail call noundef ptr @_ZN11QTreeWidget16takeTopLevelItemEi(ptr noundef align 8 dereferenceable_or_null(40) %7, i32 noundef 0)
  %.not = icmp eq ptr %8, null
  br i1 %.not, label %.preheader, label %4, !llvm.loop !109

.preheader:                                       ; preds = %4, %.preheader
  %9 = load ptr, ptr %3, align 8
  %10 = getelementptr inbounds nuw i8, ptr %9, i64 688
  %11 = load ptr, ptr %10, align 8
  %12 = tail call noundef ptr @_ZN11QTreeWidget16takeTopLevelItemEi(ptr noundef align 8 dereferenceable_or_null(40) %11, i32 noundef 0)
  %.not2 = icmp eq ptr %12, null
  br i1 %.not2, label %13, label %.preheader, !llvm.loop !110

13:                                               ; preds = %.preheader
  %14 = load ptr, ptr %3, align 8
  %15 = getelementptr inbounds nuw i8, ptr %14, i64 624
  %16 = load ptr, ptr %15, align 8
  call void @llvm.lifetime.start.p0(i64 24, ptr nonnull %2) #19
  store ptr null, ptr %2, align 8
  %17 = getelementptr inbounds nuw i8, ptr %2, i64 8
  store ptr @.str, ptr %17, align 8
  %18 = getelementptr inbounds nuw i8, ptr %2, i64 16
  store i64 1, ptr %18, align 8
  invoke void @_ZN6QLabel7setTextERK7QString(ptr noundef align 8 dereferenceable_or_null(40) %16, ptr noundef nonnull align 8 dereferenceable(24) %2)
          to label %19 unwind label %25

19:                                               ; preds = %13
  %20 = load ptr, ptr %2, align 8
  %.not.i.i.i = icmp eq ptr %20, null
  br i1 %.not.i.i.i, label %_ZN17QArrayDataPointerIDsED2Ev.exit, label %_ZN17QArrayDataPointerIDsE5derefEv.exit.i.i

_ZN17QArrayDataPointerIDsE5derefEv.exit.i.i:      ; preds = %19
  %21 = atomicrmw sub ptr %20, i32 1 seq_cst, align 4
  %.not.i.i = icmp eq i32 %21, 1
  br i1 %.not.i.i, label %22, label %_ZN17QArrayDataPointerIDsED2Ev.exit

22:                                               ; preds = %_ZN17QArrayDataPointerIDsE5derefEv.exit.i.i
  %23 = load ptr, ptr %2, align 8
  call void @_ZN10QArrayData10deallocateEPS_xx(ptr noundef %23, i64 noundef 2, i64 noundef 8) #19
  br label %_ZN17QArrayDataPointerIDsED2Ev.exit

_ZN17QArrayDataPointerIDsED2Ev.exit:              ; preds = %22, %_ZN17QArrayDataPointerIDsE5derefEv.exit.i.i, %19
  call void @llvm.lifetime.end.p0(i64 24, ptr nonnull %2) #19
  %24 = getelementptr inbounds nuw i8, ptr %0, i64 72
  store ptr null, ptr %24, align 8
  ret void

25:                                               ; preds = %13
  %26 = landingpad { ptr, i32 }
          cleanup
  %27 = load ptr, ptr %2, align 8
  %.not.i.i.i4 = icmp eq ptr %27, null
  br i1 %.not.i.i.i4, label %_ZN17QArrayDataPointerIDsED2Ev.exit11, label %_ZN17QArrayDataPointerIDsE5derefEv.exit.i.i5

_ZN17QArrayDataPointerIDsE5derefEv.exit.i.i5:     ; preds = %25
  %28 = atomicrmw sub ptr %27, i32 1 seq_cst, align 4
  %.not.i.i6 = icmp eq i32 %28, 1
  br i1 %.not.i.i6, label %29, label %_ZN17QArrayDataPointerIDsED2Ev.exit11

29:                                               ; preds = %_ZN17QArrayDataPointerIDsE5derefEv.exit.i.i5
  %30 = load ptr, ptr %2, align 8
  call void @_ZN10QArrayData10deallocateEPS_xx(ptr noundef %30, i64 noundef 2, i64 noundef 8) #19
  br label %_ZN17QArrayDataPointerIDsED2Ev.exit11

_ZN17QArrayDataPointerIDsED2Ev.exit11:            ; preds = %29, %_ZN17QArrayDataPointerIDsE5derefEv.exit.i.i5, %25
  call void @llvm.lifetime.end.p0(i64 24, ptr nonnull %2) #19
  resume { ptr, i32 } %26
}